target datalayout = "e-m:e-p270:32:32-p271:32:32-p272:64:64-i64:64-i128:128-f80:128-n8:16:32:64-S128"
target triple = "x86_64-pc-linux-gnu"

; Function Attrs: nounwind uwtable
define internal i64 @_ffsn(i64 noundef %0, i64 noundef %1) #0 {
  %3 = alloca i64, align 8
  %4 = alloca i64, align 8
  %5 = alloca i64, align 8
  %6 = alloca i32, align 4
  %7 = alloca i64, align 8
  store i64 %0, ptr %3, align 8
  store i64 %1, ptr %4, align 8
  call void @llvm.lifetime.start.p0(i64 8, ptr %5) #12
  store i64 4294967295, ptr %5, align 8
  call void @llvm.lifetime.start.p0(i64 4, ptr %6) #12
  store i32 32, ptr %6, align 4
  call void @llvm.lifetime.start.p0(i64 8, ptr %7) #12
  store i64 0, ptr %7, align 8
  br label %8

8:                                                ; preds = %40, %2
  %9 = load i32, ptr %6, align 4
  %10 = icmp ugt i32 %9, 0
  br i1 %10, label %11, label %41

11:                                               ; preds = %8
  %12 = load i64, ptr %4, align 8
  %13 = load i64, ptr %3, align 8
  %14 = load i64, ptr %5, align 8
  %15 = and i64 %13, %14
  %16 = call i64 @llvm.ctpop.i64(i64 %15)
  %17 = trunc i64 %16 to i32
  %18 = sext i32 %17 to i64
  %19 = icmp sgt i64 %12, %18
  br i1 %19, label %20, label %33

20:                                               ; preds = %11
  %21 = load i32, ptr %6, align 4
  %22 = zext i32 %21 to i64
  %23 = load i64, ptr %7, align 8
  %24 = add nsw i64 %23, %22
  store i64 %24, ptr %7, align 8
  %25 = load i32, ptr %6, align 4
  %26 = lshr i32 %25, 1
  store i32 %26, ptr %6, align 4
  %27 = load i64, ptr %5, align 8
  %28 = load i32, ptr %6, align 4
  %29 = zext i32 %28 to i64
  %30 = shl i64 %27, %29
  %31 = load i64, ptr %5, align 8
  %32 = or i64 %31, %30
  store i64 %32, ptr %5, align 8
  br label %40

33:                                               ; preds = %11
  %34 = load i32, ptr %6, align 4
  %35 = lshr i32 %34, 1
  store i32 %35, ptr %6, align 4
  %36 = load i32, ptr %6, align 4
  %37 = load i64, ptr %5, align 8
  %38 = zext i32 %36 to i64
  %39 = lshr i64 %37, %38
  store i64 %39, ptr %5, align 8
  br label %40

40:                                               ; preds = %33, %20
  br label %8, !llvm.loop !50

41:                                               ; preds = %8
  %42 = load i64, ptr %7, align 8
  call void @llvm.lifetime.end.p0(i64 8, ptr %7) #12
  call void @llvm.lifetime.end.p0(i64 4, ptr %6) #12
  call void @llvm.lifetime.end.p0(i64 8, ptr %5) #12
  ret i64 %42
}

; Function Attrs: nounwind uwtable
define dso_local i64 @bit_nth_set(ptr noundef %0, i64 noundef %1) #0 {
  %3 = alloca i64, align 8
  %4 = alloca ptr, align 8
  %5 = alloca i64, align 8
  %6 = alloca i64, align 8
  %7 = alloca i64, align 8
  %8 = alloca i64, align 8
  %9 = alloca i64, align 8
  %10 = alloca i64, align 8
  %11 = alloca i32, align 4
  %12 = alloca i32, align 4
  %13 = alloca i32, align 4
  %14 = alloca i32, align 4
  store ptr %0, ptr %4, align 8
  store i64 %1, ptr %5, align 8
  call void @llvm.lifetime.start.p0(i64 8, ptr %6) #12
  call void @llvm.lifetime.start.p0(i64 8, ptr %7) #12
  call void @llvm.lifetime.start.p0(i64 8, ptr %8) #12
  call void @llvm.lifetime.start.p0(i64 8, ptr %9) #12
  store i64 -1, ptr %9, align 8
  call void @llvm.lifetime.start.p0(i64 8, ptr %10) #12
  store i64 -1, ptr %10, align 8
  call void @llvm.lifetime.start.p0(i64 4, ptr %11) #12
  call void @llvm.lifetime.start.p0(i64 4, ptr %12) #12
  call void @llvm.lifetime.start.p0(i64 4, ptr %13) #12
  br label %15

15:                                               ; preds = %2
  br label %16

16:                                               ; preds = %15
  br label %17

17:                                               ; preds = %16
  %18 = load i64, ptr %5, align 8
  %19 = icmp sle i64 %18, 0
  br i1 %19, label %20, label %21

20:                                               ; preds = %17
  store i64 -1, ptr %3, align 8
  store i32 1, ptr %14, align 4
  br label %113

21:                                               ; preds = %17
  %22 = load ptr, ptr %4, align 8
  %23 = getelementptr inbounds i64, ptr %22, i64 1
  %24 = load i64, ptr %23, align 8
  store i64 %24, ptr %7, align 8
  %25 = load i64, ptr %7, align 8
  %26 = ashr i64 %25, 6
  %27 = add nsw i64 %26, 2
  %28 = trunc i64 %27 to i32
  store i32 %28, ptr %13, align 4
  store i64 -1, ptr %8, align 8
  store i64 0, ptr %6, align 8
  br label %29

29:                                               ; preds = %72, %21
  %30 = load i64, ptr %6, align 8
  %31 = load i64, ptr %7, align 8
  %32 = icmp slt i64 %30, %31
  br i1 %32, label %33, label %75

33:                                               ; preds = %29
  %34 = load i64, ptr %6, align 8
  %35 = ashr i64 %34, 6
  %36 = add nsw i64 %35, 2
  %37 = load i32, ptr %13, align 4
  %38 = zext i32 %37 to i64
  %39 = icmp eq i64 %36, %38
  br i1 %39, label %40, label %45

40:                                               ; preds = %33
  %41 = load i64, ptr %7, align 8
  %42 = and i64 %41, 63
  %43 = shl i64 1, %42
  %44 = sub nsw i64 %43, 1
  store i64 %44, ptr %9, align 8
  br label %45

45:                                               ; preds = %40, %33
  %46 = load ptr, ptr %4, align 8
  %47 = load i64, ptr %6, align 8
  %48 = ashr i64 %47, 6
  %49 = add nsw i64 %48, 2
  %50 = getelementptr inbounds i64, ptr %46, i64 %49
  %51 = load i64, ptr %50, align 8
  %52 = load i64, ptr %9, align 8
  %53 = and i64 %51, %52
  %54 = call i64 @llvm.ctpop.i64(i64 %53)
  %55 = trunc i64 %54 to i32
  store i32 %55, ptr %11, align 4
  %56 = load i32, ptr %11, align 4
  %57 = icmp ugt i32 %56, 0
  br i1 %57, label %58, label %61

58:                                               ; preds = %45
  %59 = load i64, ptr %6, align 8
  store i64 %59, ptr %8, align 8
  %60 = load i32, ptr %11, align 4
  store i32 %60, ptr %12, align 4
  br label %61

61:                                               ; preds = %58, %45
  %62 = load i64, ptr %5, align 8
  %63 = load i32, ptr %11, align 4
  %64 = zext i32 %63 to i64
  %65 = icmp sle i64 %62, %64
  br i1 %65, label %66, label %67

66:                                               ; preds = %61
  br label %75

67:                                               ; preds = %61
  %68 = load i32, ptr %11, align 4
  %69 = zext i32 %68 to i64
  %70 = load i64, ptr %5, align 8
  %71 = sub nsw i64 %70, %69
  store i64 %71, ptr %5, align 8
  br label %72

72:                                               ; preds = %67
  %73 = load i64, ptr %6, align 8
  %74 = add i64 %73, 64
  store i64 %74, ptr %6, align 8
  br label %29, !llvm.loop !49

75:                                               ; preds = %66, %29
  %76 = load i64, ptr %8, align 8
  %77 = icmp slt i64 %76, 0
  br i1 %77, label %78, label %79

78:                                               ; preds = %75
  store i64 -1, ptr %3, align 8
  store i32 1, ptr %14, align 4
  br label %113

79:                                               ; preds = %75
  %80 = load i64, ptr %8, align 8
  %81 = ashr i64 %80, 6
  %82 = add nsw i64 %81, 2
  %83 = load i32, ptr %13, align 4
  %84 = zext i32 %83 to i64
  %85 = icmp eq i64 %82, %84
  br i1 %85, label %86, label %91

86:                                               ; preds = %79
  %87 = load i64, ptr %7, align 8
  %88 = and i64 %87, 63
  %89 = shl i64 1, %88
  %90 = sub nsw i64 %89, 1
  store i64 %90, ptr %10, align 8
  br label %91

91:                                               ; preds = %86, %79
  %92 = load i64, ptr %8, align 8
  %93 = load ptr, ptr %4, align 8
  %94 = load i64, ptr %8, align 8
  %95 = ashr i64 %94, 6
  %96 = add nsw i64 %95, 2
  %97 = getelementptr inbounds i64, ptr %93, i64 %96
  %98 = load i64, ptr %97, align 8
  %99 = load i64, ptr %10, align 8
  %100 = and i64 %98, %99
  %101 = load i64, ptr %8, align 8
  %102 = load i64, ptr %6, align 8
  %103 = icmp eq i64 %101, %102
  br i1 %103, label %104, label %106

104:                                              ; preds = %91
  %105 = load i64, ptr %5, align 8
  br label %109

106:                                              ; preds = %91
  %107 = load i32, ptr %12, align 4
  %108 = zext i32 %107 to i64
  br label %109

109:                                              ; preds = %106, %104
  %110 = phi i64 [ %105, %104 ], [ %108, %106 ]
  %111 = call i64 @_ffsn(i64 noundef %100, i64 noundef %110)
  %112 = add nsw i64 %92, %111
  store i64 %112, ptr %3, align 8
  store i32 1, ptr %14, align 4
  br label %113

113:                                              ; preds = %109, %78, %20
  call void @llvm.lifetime.end.p0(i64 4, ptr %13) #12
  call void @llvm.lifetime.end.p0(i64 4, ptr %12) #12
  call void @llvm.lifetime.end.p0(i64 4, ptr %11) #12
  call void @llvm.lifetime.end.p0(i64 8, ptr %10) #12
  call void @llvm.lifetime.end.p0(i64 8, ptr %9) #12
  call void @llvm.lifetime.end.p0(i64 8, ptr %8) #12
  call void @llvm.lifetime.end.p0(i64 8, ptr %7) #12
  call void @llvm.lifetime.end.p0(i64 8, ptr %6) #12
  %114 = load i64, ptr %3, align 8
  ret i64 %114
}