; Function Attrs: nofree norecurse nosync nounwind memory(argmem: read) uwtable
define dso_local i64 @bit_nth_set(ptr noundef readonly captures(none) %0, i64 noundef %1) local_unnamed_addr #3 {
  %3 = icmp slt i64 %1, 1
  br i1 %3, label %._crit_edge.thread, label %4

4:                                                ; preds = %2
  %5 = getelementptr inbounds nuw i8, ptr %0, i64 8
  %6 = load i64, ptr %5, align 8
  %7 = lshr i64 %6, 6
  %8 = trunc i64 %7 to i32
  %9 = add i32 %8, 2
  %10 = icmp sgt i64 %6, 0
  br i1 %10, label %.lr.ph, label %._crit_edge.thread

.lr.ph:                                           ; preds = %4
  %11 = zext i32 %9 to i64
  %12 = and i64 %6, 63
  %notmask = shl nsw i64 -1, %12
  %13 = xor i64 %notmask, -1
  br label %14

14:                                               ; preds = %.lr.ph, %23
  %.03150 = phi i32 [ undef, %.lr.ph ], [ %.2, %23 ]
  %.03249 = phi i64 [ %1, %.lr.ph ], [ %24, %23 ]
  %.03448 = phi i64 [ -1, %.lr.ph ], [ %.135, %23 ]
  %.03647 = phi i64 [ -1, %.lr.ph ], [ %.238, %23 ]
  %.03946 = phi i64 [ 0, %.lr.ph ], [ %25, %23 ]
  %15 = ashr exact i64 %.03946, 6
  %16 = add nsw i64 %15, 2
  %17 = icmp eq i64 %16, %11
  %.135 = select i1 %17, i64 %13, i64 %.03448
  %18 = getelementptr inbounds i64, ptr %0, i64 %16
  %19 = load i64, ptr %18, align 8
  %20 = and i64 %19, %.135
  %21 = tail call range(i64 0, 65) i64 @llvm.ctpop.i64(i64 %20)
  %.not = icmp eq i64 %20, 0
  %22 = trunc nuw nsw i64 %21 to i32
  %.238 = select i1 %.not, i64 %.03647, i64 %.03946
  %.2 = select i1 %.not, i32 %.03150, i32 %22
  %.not44 = icmp sgt i64 %.03249, %21
  br i1 %.not44, label %23, label %._crit_edge

23:                                               ; preds = %14
  %24 = sub nsw i64 %.03249, %21
  %25 = add i64 %.03946, 64
  %26 = icmp slt i64 %25, %6
  br i1 %26, label %14, label %._crit_edge, !llvm.loop !47

._crit_edge:                                      ; preds = %23, %14
  %.039.lcssa.ph = phi i64 [ %25, %23 ], [ %.03946, %14 ]
  %.032.lcssa.ph = phi i64 [ %24, %23 ], [ %.03249, %14 ]
  %27 = icmp slt i64 %.238, 0
  br i1 %27, label %._crit_edge.thread, label %28

28:                                               ; preds = %._crit_edge
  %29 = zext i32 %.2 to i64
  %30 = lshr i64 %.238, 6
  %31 = add nuw nsw i64 %30, 2
  %32 = zext i32 %9 to i64
  %33 = icmp eq i64 %31, %32
  %34 = and i64 %6, 63
  %notmask45 = shl nsw i64 -1, %34
  %35 = xor i64 %notmask45, -1
  %.033 = select i1 %33, i64 %35, i64 -1
  %36 = getelementptr inbounds nuw i64, ptr %0, i64 %31
  %37 = load i64, ptr %36, align 8
  %38 = and i64 %37, %.033
  %39 = icmp eq i64 %.238, %.039.lcssa.ph
  %40 = select i1 %39, i64 %.032.lcssa.ph, i64 %29
  br label %41

41:                                               ; preds = %56, %28
  %.020.i = phi i64 [ 0, %28 ], [ %.1.i, %56 ]
  %.01419.i = phi i32 [ 32, %28 ], [ %.115.i, %56 ]
  %.01618.i = phi i64 [ 4294967295, %28 ], [ %.117.i, %56 ]
  %42 = and i64 %38, %.01618.i
  %43 = tail call range(i64 0, 65) i64 @llvm.ctpop.i64(i64 %42)
  %44 = icmp sgt i64 %40, %43
  br i1 %44, label %45, label %52

45:                                               ; preds = %41
  %46 = zext i32 %.01419.i to i64
  %47 = add nsw i64 %.020.i, %46
  %48 = lshr i32 %.01419.i, 1
  %49 = zext nneg i32 %48 to i64
  %50 = shl i64 %.01618.i, %49
  %51 = or i64 %50, %.01618.i
  br label %56

52:                                               ; preds = %41
  %53 = lshr i32 %.01419.i, 1
  %54 = zext nneg i32 %53 to i64
  %55 = lshr i64 %.01618.i, %54
  br label %56

56:                                               ; preds = %52, %45
  %.117.i = phi i64 [ %51, %45 ], [ %55, %52 ]
  %.115.i = phi i32 [ %48, %45 ], [ %53, %52 ]
  %.1.i = phi i64 [ %47, %45 ], [ %.020.i, %52 ]
  %.not.i = icmp eq i32 %.115.i, 0
  br i1 %.not.i, label %_ffsn.exit, label %41, !llvm.loop !48

_ffsn.exit:                                       ; preds = %56
  %57 = add nsw i64 %.1.i, %.238
  br label %._crit_edge.thread

._crit_edge.thread:                               ; preds = %4, %._crit_edge, %2, %_ffsn.exit
  %.0 = phi i64 [ %57, %_ffsn.exit ], [ -1, %2 ], [ -1, %._crit_edge ], [ -1, %4 ]
  ret i64 %.0
}